; ModuleID = 'source-C-CXX/55/2083.c'
source_filename = "source-C-CXX/55/2083.c"
target datalayout = "e-m:e-p270:32:32-p271:32:32-p272:64:64-i64:64-f80:128-n8:16:32:64-S128"
target triple = "x86_64-pc-linux-gnu"

@.str = private unnamed_addr constant [3 x i8] c"%d\00", align 1
@.str.1 = private unnamed_addr constant [4 x i8] c"\0A%d\00", align 1

; Function Attrs: nofree nounwind sspstrong uwtable
define dso_local void @main() local_unnamed_addr #0 {
  %1 = alloca i32, align 4
  %2 = bitcast i32* %1 to i8*
  call void @llvm.lifetime.start.p0i8(i64 4, i8* nonnull %2) #3
  %3 = call i32 (i8*, ...) @__isoc99_scanf(i8* getelementptr inbounds ([3 x i8], [3 x i8]* @.str, i64 0, i64 0), i32* nonnull %1)
  %4 = load i32, i32* %1, align 4, !tbaa !5
  %5 = srem i32 %4, 10
  %6 = sdiv i32 %4, 10
  %7 = add i32 %4, 9
  %8 = icmp ult i32 %7, 19
  br i1 %8, label %16, label %9

9:                                                ; preds = %0
  %10 = srem i32 %6, 10
  %11 = sdiv i32 %4, 100
  %12 = mul nsw i32 %5, 10
  %13 = add nsw i32 %10, %12
  %14 = add nsw i32 %6, 9
  %15 = icmp ult i32 %14, 19
  br i1 %15, label %16, label %20

16:                                               ; preds = %41, %34, %27, %20, %9, %0
  %17 = phi i32 [ %6, %0 ], [ %11, %9 ], [ %22, %20 ], [ %29, %27 ], [ %36, %34 ], [ %45, %41 ]
  %18 = phi i32 [ %5, %0 ], [ %13, %9 ], [ %24, %20 ], [ %31, %27 ], [ %38, %34 ], [ %47, %41 ]
  store i32 %17, i32* %1, align 4, !tbaa !5
  %19 = call i32 (i8*, ...) @printf(i8* nonnull dereferenceable(1) getelementptr inbounds ([4 x i8], [4 x i8]* @.str.1, i64 0, i64 0), i32 %18)
  call void @llvm.lifetime.end.p0i8(i64 4, i8* nonnull %2) #3
  ret void

20:                                               ; preds = %9
  %21 = srem i32 %11, 10
  %22 = sdiv i32 %4, 1000
  %23 = mul nsw i32 %13, 10
  %24 = add nsw i32 %21, %23
  %25 = add nsw i32 %11, 9
  %26 = icmp ult i32 %25, 19
  br i1 %26, label %16, label %27

27:                                               ; preds = %20
  %28 = srem i32 %22, 10
  %29 = sdiv i32 %4, 10000
  %30 = mul nsw i32 %24, 10
  %31 = add nsw i32 %28, %30
  %32 = add nsw i32 %22, 9
  %33 = icmp ult i32 %32, 19
  br i1 %33, label %16, label %34

34:                                               ; preds = %27
  %35 = srem i32 %29, 10
  %36 = sdiv i32 %4, 100000
  %37 = mul nsw i32 %31, 10
  %38 = add nsw i32 %35, %37
  %39 = add nsw i32 %29, 9
  %40 = icmp ult i32 %39, 19
  br i1 %40, label %16, label %41

41:                                               ; preds = %34
  %42 = trunc i32 %36 to i16
  %43 = srem i16 %42, 10
  %44 = sext i16 %43 to i32
  %45 = sdiv i32 %4, 1000000
  %46 = mul nsw i32 %38, 10
  %47 = add nsw i32 %46, %44
  br label %16
}

; Function Attrs: argmemonly mustprogress nofree nosync nounwind willreturn
declare void @llvm.lifetime.start.p0i8(i64 immarg, i8* nocapture) #1

; Function Attrs: nofree nounwind
declare noundef i32 @__isoc99_scanf(i8* nocapture noundef readonly, ...) local_unnamed_addr #2

; Function Attrs: nofree nounwind
declare noundef i32 @printf(i8* nocapture noundef readonly, ...) local_unnamed_addr #2

; Function Attrs: argmemonly mustprogress nofree nosync nounwind willreturn
declare void @llvm.lifetime.end.p0i8(i64 immarg, i8* nocapture) #1


!llvm.module.flags = !{!0, !1, !2, !3}
!llvm.ident = !{!4}

!0 = !{i32 1, !"wchar_size", i32 4}
!1 = !{i32 7, !"PIC Level", i32 2}
!2 = !{i32 7, !"PIE Level", i32 2}
!3 = !{i32 7, !"uwtable", i32 1}
!4 = !{!"clang version 13.0.0"}
!5 = !{!6, !6, i64 0}
!6 = !{!"int", !7, i64 0}
!7 = !{!"omnipotent char", !8, i64 0}
!8 = !{!"Simple C/C++ TBAA"}
